; ModuleID = '41/1007.cpp'
source_filename = "41/1007.cpp"
target datalayout = "e-m:e-p270:32:32-p271:32:32-p272:64:64-i64:64-f80:128-n8:16:32:64-S128"
target triple = "x86_64-pc-linux-gnu"

%"class.std::ios_base::Init" = type { i8 }
%"class.std::basic_ostream" = type { i32 (...)**, %"class.std::basic_ios" }
%"class.std::basic_ios" = type { %"class.std::ios_base", %"class.std::basic_ostream"*, i8, i8, %"class.std::basic_streambuf"*, %"class.std::ctype"*, %"class.std::num_put"*, %"class.std::num_get"* }
%"class.std::ios_base" = type { i32 (...)**, i64, i64, i32, i32, i32, %"struct.std::ios_base::_Callback_list"*, %"struct.std::ios_base::_Words", [8 x %"struct.std::ios_base::_Words"], i32, %"struct.std::ios_base::_Words"*, %"class.std::locale" }
%"struct.std::ios_base::_Callback_list" = type { %"struct.std::ios_base::_Callback_list"*, void (i32, %"class.std::ios_base"*, i32)*, i32, i32 }
%"struct.std::ios_base::_Words" = type { i8*, i64 }
%"class.std::locale" = type { %"class.std::locale::_Impl"* }
%"class.std::locale::_Impl" = type { i32, %"class.std::locale::facet"**, i64, %"class.std::locale::facet"**, i8** }
%"class.std::locale::facet" = type <{ i32 (...)**, i32, [4 x i8] }>
%"class.std::basic_streambuf" = type { i32 (...)**, i8*, i8*, i8*, i8*, i8*, i8*, %"class.std::locale" }
%"class.std::ctype" = type <{ %"class.std::locale::facet.base", [4 x i8], %struct.__locale_struct*, i8, [7 x i8], i32*, i32*, i16*, i8, [256 x i8], [256 x i8], i8, [6 x i8] }>
%"class.std::locale::facet.base" = type <{ i32 (...)**, i32 }>
%struct.__locale_struct = type { [13 x %struct.__locale_data*], i16*, i32*, i32*, [13 x i8*] }
%struct.__locale_data = type opaque
%"class.std::num_put" = type { %"class.std::locale::facet.base", [4 x i8] }
%"class.std::num_get" = type { %"class.std::locale::facet.base", [4 x i8] }

@_ZStL8__ioinit = internal global %"class.std::ios_base::Init" zeroinitializer, align 1
@__dso_handle = external hidden global i8
@_ZSt4cout = external dso_local global %"class.std::basic_ostream", align 8
@llvm.global_ctors = appending global [1 x { i32, void ()*, i8* }] [{ i32, void ()*, i8* } { i32 65535, void ()* @_GLOBAL__sub_I_1007.cpp, i8* null }]

; Function Attrs: noinline uwtable
define internal void @__cxx_global_var_init() #0 section ".text.startup" {
  call void @_ZNSt8ios_base4InitC1Ev(%"class.std::ios_base::Init"* @_ZStL8__ioinit)
  %1 = call i32 @__cxa_atexit(void (i8*)* bitcast (void (%"class.std::ios_base::Init"*)* @_ZNSt8ios_base4InitD1Ev to void (i8*)*), i8* getelementptr inbounds (%"class.std::ios_base::Init", %"class.std::ios_base::Init"* @_ZStL8__ioinit, i32 0, i32 0), i8* @__dso_handle) #3
  ret void
}

declare dso_local void @_ZNSt8ios_base4InitC1Ev(%"class.std::ios_base::Init"*) unnamed_addr #1

; Function Attrs: nounwind
declare dso_local void @_ZNSt8ios_base4InitD1Ev(%"class.std::ios_base::Init"*) unnamed_addr #2

; Function Attrs: nounwind
declare dso_local i32 @__cxa_atexit(void (i8*)*, i8*, i8*) #3

; Function Attrs: noinline norecurse uwtable
define dso_local i32 @main() #4 {
  %1 = alloca i32, align 4
  %2 = alloca i32, align 4
  %3 = alloca i32, align 4
  %4 = alloca i32, align 4
  %5 = alloca i32, align 4
  %6 = alloca i32, align 4
  store i32 0, i32* %1, align 4
  store i32 1, i32* %2, align 4
  br label %7

7:                                                ; preds = %200, %0
  %8 = load i32, i32* %2, align 4
  %9 = icmp sle i32 %8, 5
  br i1 %9, label %10, label %203

10:                                               ; preds = %7
  store i32 1, i32* %3, align 4
  br label %11

11:                                               ; preds = %196, %10
  %12 = load i32, i32* %3, align 4
  %13 = icmp sle i32 %12, 5
  br i1 %13, label %14, label %199

14:                                               ; preds = %11
  %15 = load i32, i32* %3, align 4
  %16 = load i32, i32* %2, align 4
  %17 = icmp eq i32 %15, %16
  br i1 %17, label %18, label %19

18:                                               ; preds = %14
  br label %196

19:                                               ; preds = %14
  store i32 1, i32* %4, align 4
  br label %20

20:                                               ; preds = %192, %19
  %21 = load i32, i32* %4, align 4
  %22 = icmp sle i32 %21, 5
  br i1 %22, label %23, label %195

23:                                               ; preds = %20
  %24 = load i32, i32* %4, align 4
  %25 = load i32, i32* %2, align 4
  %26 = icmp eq i32 %24, %25
  br i1 %26, label %31, label %27

27:                                               ; preds = %23
  %28 = load i32, i32* %4, align 4
  %29 = load i32, i32* %3, align 4
  %30 = icmp eq i32 %28, %29
  br i1 %30, label %31, label %32

31:                                               ; preds = %27, %23
  br label %192

32:                                               ; preds = %27
  store i32 1, i32* %5, align 4
  br label %33

33:                                               ; preds = %188, %32
  %34 = load i32, i32* %5, align 4
  %35 = icmp sle i32 %34, 5
  br i1 %35, label %36, label %191

36:                                               ; preds = %33
  %37 = load i32, i32* %5, align 4
  %38 = load i32, i32* %2, align 4
  %39 = icmp eq i32 %37, %38
  br i1 %39, label %48, label %40

40:                                               ; preds = %36
  %41 = load i32, i32* %5, align 4
  %42 = load i32, i32* %3, align 4
  %43 = icmp eq i32 %41, %42
  br i1 %43, label %48, label %44

44:                                               ; preds = %40
  %45 = load i32, i32* %5, align 4
  %46 = load i32, i32* %4, align 4
  %47 = icmp eq i32 %45, %46
  br i1 %47, label %48, label %49

48:                                               ; preds = %44, %40, %36
  br label %188

49:                                               ; preds = %44
  store i32 1, i32* %6, align 4
  br label %50

50:                                               ; preds = %184, %49
  %51 = load i32, i32* %6, align 4
  %52 = icmp sle i32 %51, 5
  br i1 %52, label %53, label %187

53:                                               ; preds = %50
  %54 = load i32, i32* %6, align 4
  %55 = icmp eq i32 %54, 2
  br i1 %55, label %59, label %56

56:                                               ; preds = %53
  %57 = load i32, i32* %6, align 4
  %58 = icmp eq i32 %57, 3
  br i1 %58, label %59, label %60

59:                                               ; preds = %56, %53
  br label %184

60:                                               ; preds = %56
  %61 = load i32, i32* %6, align 4
  %62 = load i32, i32* %2, align 4
  %63 = icmp eq i32 %61, %62
  br i1 %63, label %76, label %64

64:                                               ; preds = %60
  %65 = load i32, i32* %6, align 4
  %66 = load i32, i32* %3, align 4
  %67 = icmp eq i32 %65, %66
  br i1 %67, label %76, label %68

68:                                               ; preds = %64
  %69 = load i32, i32* %6, align 4
  %70 = load i32, i32* %4, align 4
  %71 = icmp eq i32 %69, %70
  br i1 %71, label %76, label %72

72:                                               ; preds = %68
  %73 = load i32, i32* %6, align 4
  %74 = load i32, i32* %5, align 4
  %75 = icmp eq i32 %73, %74
  br i1 %75, label %76, label %77

76:                                               ; preds = %72, %68, %64, %60
  br label %184

77:                                               ; preds = %72
  %78 = load i32, i32* %2, align 4
  %79 = icmp eq i32 %78, 1
  br i1 %79, label %83, label %80

80:                                               ; preds = %77
  %81 = load i32, i32* %2, align 4
  %82 = icmp eq i32 %81, 2
  br label %83

83:                                               ; preds = %80, %77
  %84 = phi i1 [ true, %77 ], [ %82, %80 ]
  %85 = zext i1 %84 to i32
  %86 = load i32, i32* %6, align 4
  %87 = icmp eq i32 %86, 1
  %88 = zext i1 %87 to i32
  %89 = icmp ne i32 %85, %88
  br i1 %89, label %90, label %91

90:                                               ; preds = %83
  br label %184

91:                                               ; preds = %83
  %92 = load i32, i32* %3, align 4
  %93 = icmp eq i32 %92, 1
  br i1 %93, label %97, label %94

94:                                               ; preds = %91
  %95 = load i32, i32* %3, align 4
  %96 = icmp eq i32 %95, 2
  br label %97

97:                                               ; preds = %94, %91
  %98 = phi i1 [ true, %91 ], [ %96, %94 ]
  %99 = zext i1 %98 to i32
  %100 = load i32, i32* %3, align 4
  %101 = icmp eq i32 %100, 2
  %102 = zext i1 %101 to i32
  %103 = icmp ne i32 %99, %102
  br i1 %103, label %104, label %105

104:                                              ; preds = %97
  br label %184

105:                                              ; preds = %97
  %106 = load i32, i32* %4, align 4
  %107 = icmp eq i32 %106, 1
  br i1 %107, label %111, label %108

108:                                              ; preds = %105
  %109 = load i32, i32* %4, align 4
  %110 = icmp eq i32 %109, 2
  br label %111

111:                                              ; preds = %108, %105
  %112 = phi i1 [ true, %105 ], [ %110, %108 ]
  %113 = zext i1 %112 to i32
  %114 = load i32, i32* %2, align 4
  %115 = icmp eq i32 %114, 5
  %116 = zext i1 %115 to i32
  %117 = icmp ne i32 %113, %116
  br i1 %117, label %118, label %119

118:                                              ; preds = %111
  br label %184

119:                                              ; preds = %111
  %120 = load i32, i32* %5, align 4
  %121 = icmp eq i32 %120, 1
  br i1 %121, label %125, label %122

122:                                              ; preds = %119
  %123 = load i32, i32* %5, align 4
  %124 = icmp eq i32 %123, 2
  br label %125

125:                                              ; preds = %122, %119
  %126 = phi i1 [ true, %119 ], [ %124, %122 ]
  %127 = zext i1 %126 to i32
  %128 = load i32, i32* %4, align 4
  %129 = icmp ne i32 %128, 1
  %130 = zext i1 %129 to i32
  %131 = icmp ne i32 %127, %130
  br i1 %131, label %132, label %133

132:                                              ; preds = %125
  br label %184

133:                                              ; preds = %125
  %134 = load i32, i32* %6, align 4
  %135 = icmp eq i32 %134, 1
  br i1 %135, label %139, label %136

136:                                              ; preds = %133
  %137 = load i32, i32* %6, align 4
  %138 = icmp eq i32 %137, 2
  br label %139

139:                                              ; preds = %136, %133
  %140 = phi i1 [ true, %133 ], [ %138, %136 ]
  %141 = zext i1 %140 to i32
  %142 = load i32, i32* %5, align 4
  %143 = icmp eq i32 %142, 1
  %144 = zext i1 %143 to i32
  %145 = icmp ne i32 %141, %144
  br i1 %145, label %146, label %147

146:                                              ; preds = %139
  br label %184

147:                                              ; preds = %139
  %148 = load i32, i32* %6, align 4
  %149 = icmp eq i32 %148, 1
  %150 = zext i1 %149 to i32
  %151 = load i32, i32* %3, align 4
  %152 = icmp eq i32 %151, 2
  %153 = zext i1 %152 to i32
  %154 = add nsw i32 %150, %153
  %155 = load i32, i32* %2, align 4
  %156 = icmp eq i32 %155, 5
  %157 = zext i1 %156 to i32
  %158 = add nsw i32 %154, %157
  %159 = load i32, i32* %4, align 4
  %160 = icmp ne i32 %159, 1
  %161 = zext i1 %160 to i32
  %162 = add nsw i32 %158, %161
  %163 = load i32, i32* %5, align 4
  %164 = icmp eq i32 %163, 1
  %165 = zext i1 %164 to i32
  %166 = add nsw i32 %162, %165
  %167 = icmp eq i32 %166, 2
  br i1 %167, label %168, label %183

168:                                              ; preds = %147
  %169 = load i32, i32* %2, align 4
  %170 = call dereferenceable(272) %"class.std::basic_ostream"* @_ZNSolsEi(%"class.std::basic_ostream"* @_ZSt4cout, i32 %169)
  %171 = call dereferenceable(272) %"class.std::basic_ostream"* @_ZStlsISt11char_traitsIcEERSt13basic_ostreamIcT_ES5_c(%"class.std::basic_ostream"* dereferenceable(272) %170, i8 signext 32)
  %172 = load i32, i32* %3, align 4
  %173 = call dereferenceable(272) %"class.std::basic_ostream"* @_ZNSolsEi(%"class.std::basic_ostream"* %171, i32 %172)
  %174 = call dereferenceable(272) %"class.std::basic_ostream"* @_ZStlsISt11char_traitsIcEERSt13basic_ostreamIcT_ES5_c(%"class.std::basic_ostream"* dereferenceable(272) %173, i8 signext 32)
  %175 = load i32, i32* %4, align 4
  %176 = call dereferenceable(272) %"class.std::basic_ostream"* @_ZNSolsEi(%"class.std::basic_ostream"* %174, i32 %175)
  %177 = call dereferenceable(272) %"class.std::basic_ostream"* @_ZStlsISt11char_traitsIcEERSt13basic_ostreamIcT_ES5_c(%"class.std::basic_ostream"* dereferenceable(272) %176, i8 signext 32)
  %178 = load i32, i32* %5, align 4
  %179 = call dereferenceable(272) %"class.std::basic_ostream"* @_ZNSolsEi(%"class.std::basic_ostream"* %177, i32 %178)
  %180 = call dereferenceable(272) %"class.std::basic_ostream"* @_ZStlsISt11char_traitsIcEERSt13basic_ostreamIcT_ES5_c(%"class.std::basic_ostream"* dereferenceable(272) %179, i8 signext 32)
  %181 = load i32, i32* %6, align 4
  %182 = call dereferenceable(272) %"class.std::basic_ostream"* @_ZNSolsEi(%"class.std::basic_ostream"* %180, i32 %181)
  br label %187

183:                                              ; preds = %147
  br label %184

184:                                              ; preds = %183, %146, %132, %118, %104, %90, %76, %59
  %185 = load i32, i32* %6, align 4
  %186 = add nsw i32 %185, 1
  store i32 %186, i32* %6, align 4
  br label %50

187:                                              ; preds = %168, %50
  br label %188

188:                                              ; preds = %187, %48
  %189 = load i32, i32* %5, align 4
  %190 = add nsw i32 %189, 1
  store i32 %190, i32* %5, align 4
  br label %33

191:                                              ; preds = %33
  br label %192

192:                                              ; preds = %191, %31
  %193 = load i32, i32* %4, align 4
  %194 = add nsw i32 %193, 1
  store i32 %194, i32* %4, align 4
  br label %20

195:                                              ; preds = %20
  br label %196

196:                                              ; preds = %195, %18
  %197 = load i32, i32* %3, align 4
  %198 = add nsw i32 %197, 1
  store i32 %198, i32* %3, align 4
  br label %11

199:                                              ; preds = %11
  br label %200

200:                                              ; preds = %199
  %201 = load i32, i32* %2, align 4
  %202 = add nsw i32 %201, 1
  store i32 %202, i32* %2, align 4
  br label %7

203:                                              ; preds = %7
  ret i32 0
}

declare dso_local dereferenceable(272) %"class.std::basic_ostream"* @_ZStlsISt11char_traitsIcEERSt13basic_ostreamIcT_ES5_c(%"class.std::basic_ostream"* dereferenceable(272), i8 signext) #1

declare dso_local dereferenceable(272) %"class.std::basic_ostream"* @_ZNSolsEi(%"class.std::basic_ostream"*, i32) #1

; Function Attrs: noinline uwtable
define internal void @_GLOBAL__sub_I_1007.cpp() #0 section ".text.startup" {
  call void @__cxx_global_var_init()
  ret void
}


!llvm.module.flags = !{!0}
!llvm.ident = !{!1}

!0 = !{i32 1, !"wchar_size", i32 4}
!1 = !{!"clang version 10.0.0-4ubuntu1 "}
